target datalayout = "e-m:e-p270:32:32-p271:32:32-p272:64:64-i64:64-i128:128-f80:128-n8:16:32:64-S128"
target triple = "x86_64-pc-linux-gnu"

%struct.lua_State = type { ptr, i8, i8, i8, i8, i16, %union.StkIdRel, ptr, ptr, %union.StkIdRel, %union.StkIdRel, ptr, %union.StkIdRel, ptr, ptr, ptr, %struct.CallInfo, ptr, i64, i32, i32, i32, i32, i32, %struct.anon.3 }
%union.StkIdRel = type { ptr }
%struct.CallInfo = type { %union.StkIdRel, %union.StkIdRel, ptr, ptr, %union.anon, %union.anon.2, i32 }
%union.anon = type { %struct.anon.1 }
%struct.anon.1 = type { ptr, i64, i64 }
%union.anon.2 = type { i32 }
%struct.anon.3 = type { i32, i32 }
%struct.global_State = type { ptr, ptr, i64, i64, i64, i64, %struct.stringtable, %struct.TValue, %struct.TValue, i32, [6 x i8], i8, i8, i8, i8, i8, i8, ptr, ptr, ptr, ptr, ptr, ptr, ptr, ptr, ptr, ptr, ptr, ptr, ptr, ptr, ptr, ptr, ptr, ptr, ptr, ptr, ptr, [25 x ptr], [9 x ptr], [53 x [2 x ptr]], ptr, ptr }
%struct.stringtable = type { ptr, i32, i32 }
%struct.TValue = type { %union.Value, i8 }
%union.Value = type { ptr }
%union.StackValue = type { %struct.TValue }
%struct.lua_longjmp = type { ptr, [1 x %struct.__jmp_buf_tag], i32 }
%struct.__jmp_buf_tag = type { [8 x i64], i32, %struct.__sigset_t }
%struct.__sigset_t = type { [16 x i64] }

; Function Attrs: noreturn nounwind uwtable
define hidden void @luaD_throw(ptr noundef %0, i32 noundef %1) #4 {
  %3 = alloca ptr, align 8
  %4 = alloca i32, align 4
  %5 = alloca ptr, align 8
  %6 = alloca ptr, align 8
  %7 = alloca ptr, align 8
  store ptr %0, ptr %3, align 8, !tbaa !4
  store i32 %1, ptr %4, align 4, !tbaa !9
  %8 = load ptr, ptr %3, align 8, !tbaa !4
  %9 = getelementptr inbounds nuw %struct.lua_State, ptr %8, i32 0, i32 15
  %10 = load ptr, ptr %9, align 8, !tbaa !40
  %11 = icmp ne ptr %10, null
  br i1 %11, label %12, label %23

12:                                               ; preds = %2
  %13 = load i32, ptr %4, align 4, !tbaa !9
  %14 = load ptr, ptr %3, align 8, !tbaa !4
  %15 = getelementptr inbounds nuw %struct.lua_State, ptr %14, i32 0, i32 15
  %16 = load ptr, ptr %15, align 8, !tbaa !40
  %17 = getelementptr inbounds nuw %struct.lua_longjmp, ptr %16, i32 0, i32 2
  store volatile i32 %13, ptr %17, align 8, !tbaa !41
  %18 = load ptr, ptr %3, align 8, !tbaa !4
  %19 = getelementptr inbounds nuw %struct.lua_State, ptr %18, i32 0, i32 15
  %20 = load ptr, ptr %19, align 8, !tbaa !40
  %21 = getelementptr inbounds nuw %struct.lua_longjmp, ptr %20, i32 0, i32 1
  %22 = getelementptr inbounds [1 x %struct.__jmp_buf_tag], ptr %21, i64 0, i64 0
  call void @_longjmp(ptr noundef %22, i32 noundef 1) #12
  unreachable

23:                                               ; preds = %2
  call void @llvm.lifetime.start.p0(i64 8, ptr %5) #11
  %24 = load ptr, ptr %3, align 8, !tbaa !4
  %25 = getelementptr inbounds nuw %struct.lua_State, ptr %24, i32 0, i32 7
  %26 = load ptr, ptr %25, align 8, !tbaa !15
  store ptr %26, ptr %5, align 8, !tbaa !43
  %27 = load ptr, ptr %3, align 8, !tbaa !4
  %28 = load i32, ptr %4, align 4, !tbaa !9
  %29 = call i32 @luaE_resetthread(ptr noundef %27, i32 noundef %28)
  store i32 %29, ptr %4, align 4, !tbaa !9
  %30 = load i32, ptr %4, align 4, !tbaa !9
  %31 = trunc i32 %30 to i8
  %32 = load ptr, ptr %3, align 8, !tbaa !4
  %33 = getelementptr inbounds nuw %struct.lua_State, ptr %32, i32 0, i32 3
  store i8 %31, ptr %33, align 2, !tbaa !44
  %34 = load ptr, ptr %5, align 8, !tbaa !43
  %35 = getelementptr inbounds nuw %struct.global_State, ptr %34, i32 0, i32 36
  %36 = load ptr, ptr %35, align 8, !tbaa !45
  %37 = getelementptr inbounds nuw %struct.lua_State, ptr %36, i32 0, i32 15
  %38 = load ptr, ptr %37, align 8, !tbaa !40
  %39 = icmp ne ptr %38, null
  br i1 %39, label %40, label %64

40:                                               ; preds = %23
  call void @llvm.lifetime.start.p0(i64 8, ptr %6) #11
  %41 = load ptr, ptr %5, align 8, !tbaa !43
  %42 = getelementptr inbounds nuw %struct.global_State, ptr %41, i32 0, i32 36
  %43 = load ptr, ptr %42, align 8, !tbaa !45
  %44 = getelementptr inbounds nuw %struct.lua_State, ptr %43, i32 0, i32 6
  %45 = load ptr, ptr %44, align 8, !tbaa !34
  %46 = getelementptr inbounds nuw %union.StackValue, ptr %45, i32 1
  store ptr %46, ptr %44, align 8, !tbaa !34
  store ptr %45, ptr %6, align 8, !tbaa !13
  call void @llvm.lifetime.start.p0(i64 8, ptr %7) #11
  %47 = load ptr, ptr %3, align 8, !tbaa !4
  %48 = getelementptr inbounds nuw %struct.lua_State, ptr %47, i32 0, i32 6
  %49 = load ptr, ptr %48, align 8, !tbaa !34
  %50 = getelementptr inbounds %union.StackValue, ptr %49, i64 -1
  store ptr %50, ptr %7, align 8, !tbaa !13
  %51 = load ptr, ptr %6, align 8, !tbaa !13
  %52 = getelementptr inbounds nuw %struct.TValue, ptr %51, i32 0, i32 0
  %53 = load ptr, ptr %7, align 8, !tbaa !13
  %54 = getelementptr inbounds nuw %struct.TValue, ptr %53, i32 0, i32 0
  call void @llvm.memcpy.p0.p0.i64(ptr align 8 %52, ptr align 8 %54, i64 8, i1 false), !tbaa.struct !39
  %55 = load ptr, ptr %7, align 8, !tbaa !13
  %56 = getelementptr inbounds nuw %struct.TValue, ptr %55, i32 0, i32 1
  %57 = load i8, ptr %56, align 8, !tbaa !38
  %58 = load ptr, ptr %6, align 8, !tbaa !13
  %59 = getelementptr inbounds nuw %struct.TValue, ptr %58, i32 0, i32 1
  store i8 %57, ptr %59, align 8, !tbaa !38
  call void @llvm.lifetime.end.p0(i64 8, ptr %7) #11
  call void @llvm.lifetime.end.p0(i64 8, ptr %6) #11
  %60 = load ptr, ptr %5, align 8, !tbaa !43
  %61 = getelementptr inbounds nuw %struct.global_State, ptr %60, i32 0, i32 36
  %62 = load ptr, ptr %61, align 8, !tbaa !45
  %63 = load i32, ptr %4, align 4, !tbaa !9
  call void @luaD_throw(ptr noundef %62, i32 noundef %63) #13
  unreachable

64:                                               ; preds = %23
  %65 = load ptr, ptr %5, align 8, !tbaa !43
  %66 = getelementptr inbounds nuw %struct.global_State, ptr %65, i32 0, i32 35
  %67 = load ptr, ptr %66, align 8, !tbaa !46
  %68 = icmp ne ptr %67, null
  br i1 %68, label %69, label %75

69:                                               ; preds = %64
  %70 = load ptr, ptr %5, align 8, !tbaa !43
  %71 = getelementptr inbounds nuw %struct.global_State, ptr %70, i32 0, i32 35
  %72 = load ptr, ptr %71, align 8, !tbaa !46
  %73 = load ptr, ptr %3, align 8, !tbaa !4
  %74 = call i32 %72(ptr noundef %73)
  br label %75

75:                                               ; preds = %69, %64
  call void @abort() #12
  unreachable
}