; Function Attrs: noreturn nounwind uwtable
define hidden void @luaD_throw(ptr noundef %0, i32 noundef %1) local_unnamed_addr #3 {
  %3 = getelementptr inbounds nuw i8, ptr %0, i64 88
  %4 = load ptr, ptr %3, align 8, !tbaa !32
  %.not = icmp eq ptr %4, null
  br i1 %.not, label %8, label %5

5:                                                ; preds = %2
  %6 = getelementptr inbounds nuw i8, ptr %4, i64 208
  store volatile i32 %1, ptr %6, align 8, !tbaa !33
  %7 = getelementptr inbounds nuw i8, ptr %4, i64 8
  tail call void @_longjmp(ptr noundef nonnull %7, i32 noundef 1) #14
  unreachable

8:                                                ; preds = %2
  %9 = getelementptr inbounds nuw i8, ptr %0, i64 24
  %10 = load ptr, ptr %9, align 8, !tbaa !4
  %11 = tail call i32 @luaE_resetthread(ptr noundef nonnull %0, i32 noundef %1) #13
  %12 = trunc i32 %11 to i8
  %13 = getelementptr inbounds nuw i8, ptr %0, i64 10
  store i8 %12, ptr %13, align 2, !tbaa !35
  %14 = getelementptr inbounds nuw i8, ptr %10, i64 264
  %15 = load ptr, ptr %14, align 8, !tbaa !36
  %16 = getelementptr inbounds nuw i8, ptr %15, i64 88
  %17 = load ptr, ptr %16, align 8, !tbaa !32
  %.not21 = icmp eq ptr %17, null
  br i1 %.not21, label %30, label %18

18:                                               ; preds = %8
  %19 = getelementptr inbounds nuw i8, ptr %15, i64 16
  %20 = load ptr, ptr %19, align 8, !tbaa !27
  %21 = getelementptr inbounds nuw i8, ptr %20, i64 16
  store ptr %21, ptr %19, align 8, !tbaa !27
  %22 = getelementptr inbounds nuw i8, ptr %0, i64 16
  %23 = load ptr, ptr %22, align 8, !tbaa !27
  %24 = getelementptr inbounds i8, ptr %23, i64 -16
  %25 = load i64, ptr %24, align 8, !tbaa !27
  store i64 %25, ptr %20, align 8, !tbaa !27
  %26 = getelementptr inbounds i8, ptr %23, i64 -8
  %27 = load i8, ptr %26, align 8, !tbaa !31
  %28 = getelementptr inbounds nuw i8, ptr %20, i64 8
  store i8 %27, ptr %28, align 8, !tbaa !31
  %29 = load ptr, ptr %14, align 8, !tbaa !36
  tail call void @luaD_throw(ptr noundef %29, i32 noundef %11) #15
  unreachable

30:                                               ; preds = %8
  %31 = getelementptr inbounds nuw i8, ptr %10, i64 256
  %32 = load ptr, ptr %31, align 8, !tbaa !37
  %.not22 = icmp eq ptr %32, null
  br i1 %.not22, label %35, label %33

33:                                               ; preds = %30
  %34 = tail call i32 %32(ptr noundef nonnull %0) #13
  br label %35

35:                                               ; preds = %33, %30
  tail call void @abort() #14
  unreachable
}